; Function Attrs: mustprogress nofree norecurse nosync nounwind willreturn memory(read, inaccessiblemem: none) uwtable
define dso_local noundef i64 @_ZNK4node4quic6Packet6lengthEv(ptr nocapture noundef nonnull readonly align 8 dereferenceable(576) %this) local_unnamed_addr #5 align 2 {
entry:
  %data_ = getelementptr inbounds i8, ptr %this, i64 552
  %0 = load ptr, ptr %data_, align 8
  %cmp.i.not = icmp eq ptr %0, null
  br i1 %cmp.i.not, label %cond.end, label %cond.true

cond.true:                                        ; preds = %entry
  %data_.i = getelementptr inbounds i8, ptr %0, i64 8
  %1 = load i64, ptr %data_.i, align 8
  br label %cond.end

cond.end:                                         ; preds = %entry, %cond.true
  %cond = phi i64 [ %1, %cond.true ], [ 0, %entry ]
  ret i64 %cond
}